; Function Attrs: mustprogress uwtable
define void @_ZN5osgeo4proj9operation14Transformation29createCoordinateFrameRotationERKNS0_4util11PropertyMapERKN7dropbox6oxygen2nnISt10shared_ptrINS0_3crs3CRSEEEESG_dddddddRKSt6vectorINS9_ISA_INS0_8metadata18PositionalAccuracyEEEESaISL_EE(ptr dead_on_unwind noalias writable sret(%"class.dropbox::oxygen::nn.68") align 8 %0, ptr noundef nonnull align 8 dereferenceable(8) %1, ptr noundef nonnull align 8 dereferenceable(16) %2, ptr noundef nonnull align 8 dereferenceable(16) %3, double noundef %4, double noundef %5, double noundef %6, double noundef %7, double noundef %8, double noundef %9, double noundef %10, ptr noundef nonnull align 8 dereferenceable(24) %11) local_unnamed_addr #0 align 2 personality ptr @__gxx_personality_v0 {
  %13 = alloca i8, align 1
  %14 = alloca i8, align 1
  %15 = alloca i8, align 1
  %16 = alloca %"class.osgeo::proj::util::PropertyMap", align 8
  call fastcc void @_ZN5osgeo4proj9operationL21getTransformationTypeERKN7dropbox6oxygen2nnISt10shared_ptrINS0_3crs3CRSEEEESB_RbSC_SC_(ptr noundef nonnull align 8 dereferenceable(16) %2, ptr noundef nonnull align 8 dereferenceable(16) %3, ptr noundef nonnull align 1 dereferenceable(1) %13, ptr noundef nonnull align 1 dereferenceable(1) %14, ptr noundef nonnull align 1 dereferenceable(1) %15)
  %17 = load i8, ptr %13, align 1
  %18 = trunc i8 %17 to i1
  %19 = load i8, ptr %14, align 1
  %20 = trunc i8 %19 to i1
  %21 = select i1 %20, i32 9607, i32 1038
  %22 = select i1 %18, i32 1032, i32 %21
  %23 = tail call fastcc noundef i32 @_ZN5osgeo4proj9operationL35useOperationMethodEPSGCodeIfPresentERKNS0_4util11PropertyMapEi(ptr noundef nonnull align 8 dereferenceable(8) %1, i32 noundef %22)
  call void @_ZN5osgeo4proj9operation27createMethodMapNameEPSGCodeEi(ptr dead_on_unwind nonnull writable sret(%"class.osgeo::proj::util::PropertyMap") align 8 %16, i32 noundef %23)
  invoke fastcc void @_ZN5osgeo4proj9operationL26createSevenParamsTransformERKNS0_4util11PropertyMapES5_RKN7dropbox6oxygen2nnISt10shared_ptrINS0_3crs3CRSEEEESF_dddddddRKSt6vectorINS8_IS9_INS0_8metadata18PositionalAccuracyEEEESaISK_EE(ptr dead_on_unwind noalias writable align 8 %0, ptr noundef nonnull align 8 dereferenceable(8) %1, ptr noundef nonnull align 8 dereferenceable(8) %16, ptr noundef nonnull align 8 dereferenceable(16) %2, ptr noundef nonnull align 8 dereferenceable(16) %3, double noundef %4, double noundef %5, double noundef %6, double noundef %7, double noundef %8, double noundef %9, double noundef %10, ptr noundef nonnull align 8 dereferenceable(24) %11)
          to label %24 unwind label %25

24:                                               ; preds = %12
  call void @_ZN5osgeo4proj4util11PropertyMapD1Ev(ptr noundef nonnull align 8 dereferenceable(8) %16) #21
  ret void

25:                                               ; preds = %12
  %26 = landingpad { ptr, i32 }
          cleanup
  call void @_ZN5osgeo4proj4util11PropertyMapD1Ev(ptr noundef nonnull align 8 dereferenceable(8) %16) #21
  resume { ptr, i32 } %26
}